; Function Attrs: nounwind uwtable
define dso_local void @_PyErr_ChainExceptions1(ptr noundef %0) local_unnamed_addr #0 {
  %2 = icmp eq ptr %0, null
  br i1 %2, label %_PyErr_SetRaisedException.exit, label %3

3:                                                ; preds = %1
  %4 = tail call align 8 ptr @llvm.threadlocal.address.p0(ptr align 8 @_Py_tss_tstate)
  %5 = load ptr, ptr %4, align 8, !tbaa !25
  %6 = getelementptr i8, ptr %5, i64 112
  %.val = load ptr, ptr %6, align 8, !tbaa !4
  %7 = icmp eq ptr %.val, null
  br i1 %7, label %.thread, label %_PyErr_Occurred.exit

.thread:                                          ; preds = %3
  store ptr %0, ptr %6, align 8, !tbaa !4
  br label %_PyErr_SetRaisedException.exit

_PyErr_Occurred.exit:                             ; preds = %3
  %8 = getelementptr i8, ptr %.val, i64 8
  %.val.i = load ptr, ptr %8, align 8, !tbaa !21
  %.not = icmp eq ptr %.val.i, null
  br i1 %.not, label %17, label %9

9:                                                ; preds = %_PyErr_Occurred.exit
  store ptr null, ptr %6, align 8, !tbaa !4
  tail call void @PyException_SetContext(ptr noundef nonnull %.val, ptr noundef nonnull %0) #17
  %10 = load ptr, ptr %6, align 8, !tbaa !4
  store ptr %.val, ptr %6, align 8, !tbaa !4
  %.not.i.i = icmp eq ptr %10, null
  br i1 %.not.i.i, label %_PyErr_SetRaisedException.exit, label %11

11:                                               ; preds = %9
  %12 = load i32, ptr %10, align 8, !tbaa !20
  %.not.i.i.i = icmp sgt i32 %12, -1
  br i1 %.not.i.i.i, label %13, label %_PyErr_SetRaisedException.exit

13:                                               ; preds = %11
  %14 = add nsw i32 %12, -1
  store i32 %14, ptr %10, align 8, !tbaa !20
  %15 = icmp eq i32 %14, 0
  br i1 %15, label %16, label %_PyErr_SetRaisedException.exit

16:                                               ; preds = %13
  tail call void @_Py_Dealloc(ptr noundef nonnull %10) #17
  br label %_PyErr_SetRaisedException.exit

17:                                               ; preds = %_PyErr_Occurred.exit
  store ptr %0, ptr %6, align 8, !tbaa !4
  %18 = load i32, ptr %.val, align 8, !tbaa !20
  %.not.i.i.i10 = icmp sgt i32 %18, -1
  br i1 %.not.i.i.i10, label %19, label %_PyErr_SetRaisedException.exit

19:                                               ; preds = %17
  %20 = add nsw i32 %18, -1
  store i32 %20, ptr %.val, align 8, !tbaa !20
  %21 = icmp eq i32 %20, 0
  br i1 %21, label %22, label %_PyErr_SetRaisedException.exit

22:                                               ; preds = %19
  tail call void @_Py_Dealloc(ptr noundef nonnull %.val) #17
  br label %_PyErr_SetRaisedException.exit

_PyErr_SetRaisedException.exit:                   ; preds = %22, %19, %17, %.thread, %16, %13, %11, %9, %1
  ret void
}